target datalayout = "e-m:e-p270:32:32-p271:32:32-p272:64:64-i64:64-i128:128-f80:128-n8:16:32:64-S128"
target triple = "x86_64-pc-linux-gnu"

%struct.GetBitContext = type { ptr, ptr, i32, i32, i32 }
%struct.CodedBitstreamContext = type { ptr, ptr, ptr, ptr, i32, i32, i32, ptr, ptr, ptr, ptr, i64 }
%struct.AV1RawFrameHeader = type { i8, i8, i32, i32, i8, i8, i8, i8, i8, i8, i8, i32, i8, i8, i8, [32 x i32], i8, i16, i16, i8, i8, i8, i16, i16, [7 x i8], i8, i8, [8 x i8], i8, i8, i8, [7 x i8], [7 x i32], i8, i8, i8, i8, i8, i8, i8, i8, i8, [64 x i8], [64 x i8], [64 x i8], [64 x i8], i16, i8, i16, i16, i8, i8, i8, i8, i8, i8, i8, i8, i8, i8, i8, i8, i8, i8, i8, [8 x [8 x i8]], [8 x [8 x i16]], i8, i8, i8, i8, i8, [4 x i8], i8, i8, i8, [8 x i8], [8 x i8], [2 x i8], [2 x i8], i8, i8, [8 x i8], [8 x i8], [8 x i8], [8 x i8], [3 x i8], i8, i8, i8, i8, i8, i8, i8, [8 x i8], [8 x i8], [8 x i8], [8 x [6 x i32]], %struct.AV1RawFilmGrainParams }
%struct.AV1RawFilmGrainParams = type { i8, i16, i8, i8, i8, [14 x i8], [14 x i8], i8, i8, [10 x i8], [10 x i8], i8, [10 x i8], [10 x i8], i8, i8, [24 x i8], [25 x i8], [25 x i8], i8, i8, i8, i8, i16, i8, i8, i16, i8, i8 }

@.str.8 = private unnamed_addr constant [30 x i8] c"Assertion %s failed at %s:%d\0A\00", align 1
@.str.10 = private unnamed_addr constant [21 x i8] c"libavcodec/cbs_av1.c\00", align 1
@ff_log2_tab = external constant [256 x i8], align 16
@.str.217 = private unnamed_addr constant [20 x i8] c"gm_params[ref][idx]\00", align 1
@.str.218 = private unnamed_addr constant [14 x i8] c"range_max > 0\00", align 1
@.str.219 = private unnamed_addr constant [17 x i8] c"subexp_more_bits\00", align 1
@.str.220 = private unnamed_addr constant [12 x i8] c"subexp_bits\00", align 1
@.str.221 = private unnamed_addr constant [18 x i8] c"subexp_final_bits\00", align 1

; Function Attrs: alwaysinline nounwind willreturn memory(none) uwtable
define internal i32 @ff_log2_c(i32 noundef %0) #6 {
  %2 = alloca i32, align 4
  %3 = alloca i32, align 4
  store i32 %0, ptr %2, align 4, !tbaa !11
  call void @llvm.lifetime.start.p0(i64 4, ptr %3) #8
  store i32 0, ptr %3, align 4, !tbaa !11
  %4 = load i32, ptr %2, align 4, !tbaa !11
  %5 = and i32 %4, -65536
  %6 = icmp ne i32 %5, 0
  br i1 %6, label %7, label %12

7:                                                ; preds = %1
  %8 = load i32, ptr %2, align 4, !tbaa !11
  %9 = lshr i32 %8, 16
  store i32 %9, ptr %2, align 4, !tbaa !11
  %10 = load i32, ptr %3, align 4, !tbaa !11
  %11 = add nsw i32 %10, 16
  store i32 %11, ptr %3, align 4, !tbaa !11
  br label %12

12:                                               ; preds = %7, %1
  %13 = load i32, ptr %2, align 4, !tbaa !11
  %14 = and i32 %13, 65280
  %15 = icmp ne i32 %14, 0
  br i1 %15, label %16, label %21

16:                                               ; preds = %12
  %17 = load i32, ptr %2, align 4, !tbaa !11
  %18 = lshr i32 %17, 8
  store i32 %18, ptr %2, align 4, !tbaa !11
  %19 = load i32, ptr %3, align 4, !tbaa !11
  %20 = add nsw i32 %19, 8
  store i32 %20, ptr %3, align 4, !tbaa !11
  br label %21

21:                                               ; preds = %16, %12
  %22 = load i32, ptr %2, align 4, !tbaa !11
  %23 = zext i32 %22 to i64
  %24 = getelementptr inbounds nuw [256 x i8], ptr @ff_log2_tab, i64 0, i64 %23
  %25 = load i8, ptr %24, align 1, !tbaa !27
  %26 = zext i8 %25 to i32
  %27 = load i32, ptr %3, align 4, !tbaa !11
  %28 = add nsw i32 %27, %26
  store i32 %28, ptr %3, align 4, !tbaa !11
  %29 = load i32, ptr %3, align 4, !tbaa !11
  call void @llvm.lifetime.end.p0(i64 4, ptr %3) #8
  ret i32 %29
}

; Function Attrs: nounwind uwtable
define internal i32 @cbs_av1_read_subexp(ptr noundef %0, ptr noundef %1, i32 noundef %2, ptr noundef %3, ptr noundef %4, ptr noundef %5) #0 {
  %7 = alloca i32, align 4
  %8 = alloca ptr, align 8
  %9 = alloca ptr, align 8
  %10 = alloca i32, align 4
  %11 = alloca ptr, align 8
  %12 = alloca ptr, align 8
  %13 = alloca ptr, align 8
  %14 = alloca i32, align 4
  %15 = alloca i32, align 4
  %16 = alloca i32, align 4
  %17 = alloca i32, align 4
  %18 = alloca i32, align 4
  %19 = alloca i32, align 4
  %20 = alloca %struct.GetBitContext, align 8
  %21 = alloca i32, align 4
  store ptr %0, ptr %8, align 8, !tbaa !4
  store ptr %1, ptr %9, align 8, !tbaa !103
  store i32 %2, ptr %10, align 4, !tbaa !11
  store ptr %3, ptr %11, align 8, !tbaa !23
  store ptr %4, ptr %12, align 8, !tbaa !122
  store ptr %5, ptr %13, align 8, !tbaa !122
  call void @llvm.lifetime.start.p0(i64 4, ptr %14) #8
  call void @llvm.lifetime.start.p0(i64 4, ptr %15) #8
  call void @llvm.lifetime.start.p0(i64 4, ptr %16) #8
  call void @llvm.lifetime.start.p0(i64 4, ptr %17) #8
  call void @llvm.lifetime.start.p0(i64 4, ptr %18) #8
  call void @llvm.lifetime.start.p0(i64 4, ptr %19) #8
  call void @llvm.lifetime.start.p0(i64 32, ptr %20) #8
  br label %22

22:                                               ; preds = %6
  %23 = load ptr, ptr %8, align 8, !tbaa !4
  %24 = getelementptr inbounds nuw %struct.CodedBitstreamContext, ptr %23, i32 0, i32 5
  %25 = load i32, ptr %24, align 4, !tbaa !13
  %26 = icmp ne i32 %25, 0
  br i1 %26, label %27, label %29

27:                                               ; preds = %22
  %28 = load ptr, ptr %9, align 8, !tbaa !103
  call void @llvm.memcpy.p0.p0.i64(ptr align 8 %20, ptr align 8 %28, i64 32, i1 false), !tbaa.struct !120
  br label %29

29:                                               ; preds = %27, %22
  br label %30

30:                                               ; preds = %29
  br label %31

31:                                               ; preds = %30
  br label %32

32:                                               ; preds = %31
  %33 = load i32, ptr %10, align 4, !tbaa !11
  %34 = icmp ugt i32 %33, 0
  br i1 %34, label %36, label %35

35:                                               ; preds = %32
  call void (ptr, i32, ptr, ...) @av_log(ptr noundef null, i32 noundef 0, ptr noundef @.str.8, ptr noundef @.str.218, ptr noundef @.str.10, i32 noundef 345)
  call void @abort() #9
  unreachable

36:                                               ; preds = %32
  br label %37

37:                                               ; preds = %36
  br label %38

38:                                               ; preds = %37
  %39 = load i32, ptr %10, align 4, !tbaa !11
  %40 = sub i32 %39, 1
  %41 = call i32 @ff_log2_c(i32 noundef %40) #10
  %42 = sub nsw i32 %41, 3
  store i32 %42, ptr %15, align 4, !tbaa !11
  %43 = load ptr, ptr %8, align 8, !tbaa !4
  %44 = load ptr, ptr %9, align 8, !tbaa !103
  %45 = load i32, ptr %15, align 4, !tbaa !11
  %46 = call i32 @cbs_av1_read_increment(ptr noundef %43, ptr noundef %44, i32 noundef 0, i32 noundef %45, ptr noundef @.str.219, ptr noundef %16)
  store i32 %46, ptr %19, align 4, !tbaa !11
  %47 = load i32, ptr %19, align 4, !tbaa !11
  %48 = icmp slt i32 %47, 0
  br i1 %48, label %49, label %51

49:                                               ; preds = %38
  %50 = load i32, ptr %19, align 4, !tbaa !11
  store i32 %50, ptr %7, align 4
  store i32 1, ptr %21, align 4
  br label %112

51:                                               ; preds = %38
  %52 = load i32, ptr %16, align 4, !tbaa !11
  %53 = icmp ne i32 %52, 0
  br i1 %53, label %54, label %59

54:                                               ; preds = %51
  %55 = load i32, ptr %16, align 4, !tbaa !11
  %56 = add i32 2, %55
  store i32 %56, ptr %18, align 4, !tbaa !11
  %57 = load i32, ptr %18, align 4, !tbaa !11
  %58 = shl i32 1, %57
  store i32 %58, ptr %17, align 4, !tbaa !11
  br label %60

59:                                               ; preds = %51
  store i32 3, ptr %18, align 4, !tbaa !11
  store i32 0, ptr %17, align 4, !tbaa !11
  br label %60

60:                                               ; preds = %59, %54
  %61 = load i32, ptr %16, align 4, !tbaa !11
  %62 = load i32, ptr %15, align 4, !tbaa !11
  %63 = icmp ult i32 %61, %62
  br i1 %63, label %64, label %74

64:                                               ; preds = %60
  %65 = load ptr, ptr %8, align 8, !tbaa !4
  %66 = load ptr, ptr %9, align 8, !tbaa !103
  %67 = load i32, ptr %18, align 4, !tbaa !11
  %68 = call i32 @ff_cbs_read_simple_unsigned(ptr noundef %65, ptr noundef %66, i32 noundef %67, ptr noundef @.str.220, ptr noundef %14)
  store i32 %68, ptr %19, align 4, !tbaa !11
  %69 = load i32, ptr %19, align 4, !tbaa !11
  %70 = icmp slt i32 %69, 0
  br i1 %70, label %71, label %73

71:                                               ; preds = %64
  %72 = load i32, ptr %19, align 4, !tbaa !11
  store i32 %72, ptr %7, align 4
  store i32 1, ptr %21, align 4
  br label %112

73:                                               ; preds = %64
  br label %86

74:                                               ; preds = %60
  %75 = load ptr, ptr %8, align 8, !tbaa !4
  %76 = load ptr, ptr %9, align 8, !tbaa !103
  %77 = load i32, ptr %10, align 4, !tbaa !11
  %78 = load i32, ptr %17, align 4, !tbaa !11
  %79 = sub i32 %77, %78
  %80 = call i32 @cbs_av1_read_ns(ptr noundef %75, ptr noundef %76, i32 noundef %79, ptr noundef @.str.221, ptr noundef null, ptr noundef %14)
  store i32 %80, ptr %19, align 4, !tbaa !11
  %81 = load i32, ptr %19, align 4, !tbaa !11
  %82 = icmp slt i32 %81, 0
  br i1 %82, label %83, label %85

83:                                               ; preds = %74
  %84 = load i32, ptr %19, align 4, !tbaa !11
  store i32 %84, ptr %7, align 4
  store i32 1, ptr %21, align 4
  br label %112

85:                                               ; preds = %74
  br label %86

86:                                               ; preds = %85, %73
  %87 = load i32, ptr %17, align 4, !tbaa !11
  %88 = load i32, ptr %14, align 4, !tbaa !11
  %89 = add i32 %88, %87
  store i32 %89, ptr %14, align 4, !tbaa !11
  br label %90

90:                                               ; preds = %86
  %91 = load ptr, ptr %8, align 8, !tbaa !4
  %92 = getelementptr inbounds nuw %struct.CodedBitstreamContext, ptr %91, i32 0, i32 5
  %93 = load i32, ptr %92, align 4, !tbaa !13
  %94 = icmp ne i32 %93, 0
  br i1 %94, label %95, label %106

95:                                               ; preds = %90
  %96 = load ptr, ptr %8, align 8, !tbaa !4
  %97 = getelementptr inbounds nuw %struct.CodedBitstreamContext, ptr %96, i32 0, i32 8
  %98 = load ptr, ptr %97, align 8, !tbaa !123
  %99 = load ptr, ptr %8, align 8, !tbaa !4
  %100 = getelementptr inbounds nuw %struct.CodedBitstreamContext, ptr %99, i32 0, i32 7
  %101 = load ptr, ptr %100, align 8, !tbaa !124
  %102 = load ptr, ptr %11, align 8, !tbaa !23
  %103 = load ptr, ptr %12, align 8, !tbaa !122
  %104 = load i32, ptr %14, align 4, !tbaa !11
  %105 = zext i32 %104 to i64
  call void %98(ptr noundef %101, ptr noundef %20, i32 noundef 0, ptr noundef %102, ptr noundef %103, i64 noundef %105)
  br label %106

106:                                              ; preds = %95, %90
  br label %107

107:                                              ; preds = %106
  br label %108

108:                                              ; preds = %107
  %109 = load i32, ptr %14, align 4, !tbaa !11
  %110 = load ptr, ptr %13, align 8, !tbaa !122
  store i32 %109, ptr %110, align 4, !tbaa !11
  %111 = load i32, ptr %19, align 4, !tbaa !11
  store i32 %111, ptr %7, align 4
  store i32 1, ptr %21, align 4
  br label %112

112:                                              ; preds = %108, %83, %71, %49
  call void @llvm.lifetime.end.p0(i64 32, ptr %20) #8
  call void @llvm.lifetime.end.p0(i64 4, ptr %19) #8
  call void @llvm.lifetime.end.p0(i64 4, ptr %18) #8
  call void @llvm.lifetime.end.p0(i64 4, ptr %17) #8
  call void @llvm.lifetime.end.p0(i64 4, ptr %16) #8
  call void @llvm.lifetime.end.p0(i64 4, ptr %15) #8
  call void @llvm.lifetime.end.p0(i64 4, ptr %14) #8
  %113 = load i32, ptr %7, align 4
  ret i32 %113
}

; Function Attrs: nounwind uwtable
define internal i32 @cbs_av1_read_global_motion_param(ptr noundef %0, ptr noundef %1, ptr noundef %2, i32 noundef %3, i32 noundef %4, i32 noundef %5) #0 {
  %7 = alloca i32, align 4
  %8 = alloca ptr, align 8
  %9 = alloca ptr, align 8
  %10 = alloca ptr, align 8
  %11 = alloca i32, align 4
  %12 = alloca i32, align 4
  %13 = alloca i32, align 4
  %14 = alloca i32, align 4
  %15 = alloca i32, align 4
  %16 = alloca i32, align 4
  %17 = alloca i32, align 4
  %18 = alloca i32, align 4
  %19 = alloca [3 x i32], align 4
  %20 = alloca i32, align 4
  store ptr %0, ptr %8, align 8, !tbaa !4
  store ptr %1, ptr %9, align 8, !tbaa !103
  store ptr %2, ptr %10, align 8, !tbaa !159
  store i32 %3, ptr %11, align 4, !tbaa !11
  store i32 %4, ptr %12, align 4, !tbaa !11
  store i32 %5, ptr %13, align 4, !tbaa !11
  call void @llvm.lifetime.start.p0(i64 4, ptr %14) #8
  call void @llvm.lifetime.start.p0(i64 4, ptr %15) #8
  call void @llvm.lifetime.start.p0(i64 4, ptr %16) #8
  call void @llvm.lifetime.start.p0(i64 4, ptr %17) #8
  %21 = load i32, ptr %13, align 4, !tbaa !11
  %22 = icmp slt i32 %21, 2
  br i1 %22, label %23, label %43

23:                                               ; preds = %6
  %24 = load i32, ptr %11, align 4, !tbaa !11
  %25 = icmp eq i32 %24, 1
  br i1 %25, label %26, label %41

26:                                               ; preds = %23
  %27 = load ptr, ptr %10, align 8, !tbaa !159
  %28 = getelementptr inbounds nuw %struct.AV1RawFrameHeader, ptr %27, i32 0, i32 33
  %29 = load i8, ptr %28, align 4, !tbaa !274
  %30 = icmp ne i8 %29, 0
  %31 = xor i1 %30, true
  %32 = zext i1 %31 to i32
  %33 = sub nsw i32 9, %32
  store i32 %33, ptr %14, align 4, !tbaa !11
  %34 = load ptr, ptr %10, align 8, !tbaa !159
  %35 = getelementptr inbounds nuw %struct.AV1RawFrameHeader, ptr %34, i32 0, i32 33
  %36 = load i8, ptr %35, align 4, !tbaa !274
  %37 = icmp ne i8 %36, 0
  %38 = xor i1 %37, true
  %39 = zext i1 %38 to i32
  %40 = sub nsw i32 3, %39
  store i32 %40, ptr %15, align 4, !tbaa !11
  br label %42

41:                                               ; preds = %23
  store i32 12, ptr %14, align 4, !tbaa !11
  store i32 6, ptr %15, align 4, !tbaa !11
  br label %42

42:                                               ; preds = %41, %26
  br label %44

43:                                               ; preds = %6
  store i32 12, ptr %14, align 4, !tbaa !11
  store i32 15, ptr %15, align 4, !tbaa !11
  br label %44

44:                                               ; preds = %43, %42
  %45 = load i32, ptr %14, align 4, !tbaa !11
  %46 = shl i32 1, %45
  %47 = mul nsw i32 2, %46
  %48 = add nsw i32 %47, 1
  store i32 %48, ptr %16, align 4, !tbaa !11
  br label %49

49:                                               ; preds = %44
  call void @llvm.lifetime.start.p0(i64 4, ptr %18) #8
  br label %50

50:                                               ; preds = %49
  %51 = load ptr, ptr %8, align 8, !tbaa !4
  %52 = load ptr, ptr %9, align 8, !tbaa !103
  %53 = load i32, ptr %16, align 4, !tbaa !11
  store i32 2, ptr %19, align 4, !tbaa !11
  %54 = getelementptr inbounds i32, ptr %19, i64 1
  %55 = load i32, ptr %12, align 4, !tbaa !11
  store i32 %55, ptr %54, align 4, !tbaa !11
  %56 = getelementptr inbounds i32, ptr %19, i64 2
  %57 = load i32, ptr %13, align 4, !tbaa !11
  store i32 %57, ptr %56, align 4, !tbaa !11
  %58 = getelementptr inbounds [3 x i32], ptr %19, i64 0, i64 0
  %59 = call i32 @cbs_av1_read_subexp(ptr noundef %51, ptr noundef %52, i32 noundef %53, ptr noundef @.str.217, ptr noundef %58, ptr noundef %18)
  store i32 %59, ptr %17, align 4, !tbaa !11
  %60 = load i32, ptr %17, align 4, !tbaa !11
  %61 = icmp slt i32 %60, 0
  br i1 %61, label %62, label %64

62:                                               ; preds = %50
  %63 = load i32, ptr %17, align 4, !tbaa !11
  store i32 %63, ptr %7, align 4
  store i32 1, ptr %20, align 4
  br label %76

64:                                               ; preds = %50
  br label %65

65:                                               ; preds = %64
  br label %66

66:                                               ; preds = %65
  %67 = load i32, ptr %18, align 4, !tbaa !11
  %68 = load ptr, ptr %10, align 8, !tbaa !159
  %69 = getelementptr inbounds nuw %struct.AV1RawFrameHeader, ptr %68, i32 0, i32 97
  %70 = load i32, ptr %12, align 4, !tbaa !11
  %71 = sext i32 %70 to i64
  %72 = getelementptr inbounds [8 x [6 x i32]], ptr %69, i64 0, i64 %71
  %73 = load i32, ptr %13, align 4, !tbaa !11
  %74 = sext i32 %73 to i64
  %75 = getelementptr inbounds [6 x i32], ptr %72, i64 0, i64 %74
  store i32 %67, ptr %75, align 4, !tbaa !11
  store i32 0, ptr %20, align 4
  br label %76

76:                                               ; preds = %66, %62
  call void @llvm.lifetime.end.p0(i64 4, ptr %18) #8
  %77 = load i32, ptr %20, align 4
  switch i32 %77, label %81 [
    i32 0, label %78
  ]

78:                                               ; preds = %76
  br label %79

79:                                               ; preds = %78
  br label %80

80:                                               ; preds = %79
  store i32 0, ptr %7, align 4
  store i32 1, ptr %20, align 4
  br label %81

81:                                               ; preds = %80, %76
  call void @llvm.lifetime.end.p0(i64 4, ptr %17) #8
  call void @llvm.lifetime.end.p0(i64 4, ptr %16) #8
  call void @llvm.lifetime.end.p0(i64 4, ptr %15) #8
  call void @llvm.lifetime.end.p0(i64 4, ptr %14) #8
  %82 = load i32, ptr %7, align 4
  ret i32 %82
}