; Function Attrs: nounwind uwtable
define internal fastcc range(i32 -2147483648, 1) i32 @cbs_av1_read_global_motion_param(ptr noundef %0, ptr noundef nonnull %1, ptr noundef captures(none) %2, i32 noundef range(i32 1, 4) %3, i32 noundef range(i32 -2147483648, 8) %4, i32 noundef range(i32 0, 6) %5) unnamed_addr #0 {
  %7 = alloca i32, align 4
  %8 = alloca i32, align 4
  %9 = alloca %struct.GetBitContext, align 8
  %10 = alloca [3 x i32], align 4
  %11 = icmp samesign ult i32 %5, 2
  %12 = icmp eq i32 %3, 1
  %or.cond = and i1 %12, %11
  br i1 %or.cond, label %13, label %17

13:                                               ; preds = %6
  %14 = getelementptr inbounds nuw i8, ptr %2, i64 228
  %15 = load i8, ptr %14, align 4, !tbaa !264
  %.not = icmp eq i8 %15, 0
  %16 = select i1 %.not, i32 8, i32 9
  br label %17

17:                                               ; preds = %6, %13
  %.017 = phi i32 [ %16, %13 ], [ 12, %6 ]
  %18 = shl nuw nsw i32 2, %.017
  %19 = or disjoint i32 %18, 1
  store i32 2, ptr %10, align 4, !tbaa !69
  %20 = getelementptr inbounds nuw i8, ptr %10, i64 4
  store i32 %4, ptr %20, align 4, !tbaa !69
  %21 = getelementptr inbounds nuw i8, ptr %10, i64 8
  store i32 %5, ptr %21, align 4, !tbaa !69
  call void @llvm.lifetime.start.p0(i64 4, ptr nonnull %7) #8
  call void @llvm.lifetime.start.p0(i64 4, ptr nonnull %8) #8
  call void @llvm.lifetime.start.p0(i64 32, ptr nonnull %9) #8
  %22 = getelementptr inbounds nuw i8, ptr %0, i64 36
  %23 = load i32, ptr %22, align 4, !tbaa !4
  %.not.i = icmp eq i32 %23, 0
  br i1 %.not.i, label %25, label %24

24:                                               ; preds = %17
  call void @llvm.memcpy.p0.p0.i64(ptr noundef nonnull align 8 dereferenceable(32) %9, ptr noundef nonnull align 8 dereferenceable(32) %1, i64 32, i1 false), !tbaa.struct !204
  br label %25

25:                                               ; preds = %24, %17
  %26 = lshr exact i32 %18, 8
  %27 = zext nneg i32 %26 to i64
  %28 = getelementptr inbounds nuw [256 x i8], ptr @ff_log2_tab, i64 0, i64 %27
  %29 = load i8, ptr %28, align 2, !tbaa !20
  %30 = zext i8 %29 to i32
  %31 = add nuw nsw i32 %30, 5
  %32 = call fastcc i32 @cbs_av1_read_increment(ptr noundef nonnull %0, ptr noundef nonnull %1, i32 noundef 0, i32 noundef %31, ptr noundef nonnull @.str.219, ptr noundef %8)
  %33 = icmp slt i32 %32, 0
  br i1 %33, label %56, label %34

34:                                               ; preds = %25
  %35 = load i32, ptr %8, align 4, !tbaa !69
  %.not39.i = icmp eq i32 %35, 0
  %36 = add i32 %35, 2
  %37 = shl nuw i32 1, %36
  %.031.i = select i1 %.not39.i, i32 0, i32 %37
  %38 = icmp ult i32 %35, %31
  br i1 %38, label %39, label %42

39:                                               ; preds = %34
  %.030.i = select i1 %.not39.i, i32 3, i32 %36
  %40 = call i32 @ff_cbs_read_simple_unsigned(ptr noundef nonnull %0, ptr noundef nonnull %1, i32 noundef %.030.i, ptr noundef nonnull @.str.220, ptr noundef nonnull %7) #8
  %41 = icmp slt i32 %40, 0
  br i1 %41, label %56, label %46

42:                                               ; preds = %34
  %43 = sub i32 %19, %37
  %44 = call fastcc i32 @cbs_av1_read_ns(ptr noundef nonnull %0, ptr noundef nonnull %1, i32 noundef %43, ptr noundef nonnull @.str.221, ptr noundef null, ptr noundef %7)
  %45 = icmp slt i32 %44, 0
  br i1 %45, label %56, label %46

46:                                               ; preds = %42, %39
  %47 = load i32, ptr %7, align 4, !tbaa !69
  %48 = add i32 %47, %.031.i
  store i32 %48, ptr %7, align 4, !tbaa !69
  %49 = load i32, ptr %22, align 4, !tbaa !4
  %.not40.i = icmp eq i32 %49, 0
  br i1 %.not40.i, label %57, label %50

50:                                               ; preds = %46
  %51 = getelementptr inbounds nuw i8, ptr %0, i64 56
  %52 = load ptr, ptr %51, align 8, !tbaa !206
  %53 = getelementptr inbounds nuw i8, ptr %0, i64 48
  %54 = load ptr, ptr %53, align 8, !tbaa !98
  %55 = zext i32 %48 to i64
  call void %52(ptr noundef %54, ptr noundef nonnull %9, i32 noundef 0, ptr noundef nonnull @.str.217, ptr noundef nonnull %10, i64 noundef %55) #8
  %.pre.i = load i32, ptr %7, align 4, !tbaa !69
  br label %57

56:                                               ; preds = %25, %39, %42
  %.032.i.ph = phi i32 [ %44, %42 ], [ %40, %39 ], [ %32, %25 ]
  call void @llvm.lifetime.end.p0(i64 32, ptr nonnull %9) #8
  call void @llvm.lifetime.end.p0(i64 4, ptr nonnull %8) #8
  call void @llvm.lifetime.end.p0(i64 4, ptr nonnull %7) #8
  br label %62

57:                                               ; preds = %46, %50
  %.0 = phi i32 [ %.pre.i, %50 ], [ %48, %46 ]
  call void @llvm.lifetime.end.p0(i64 32, ptr nonnull %9) #8
  call void @llvm.lifetime.end.p0(i64 4, ptr nonnull %8) #8
  call void @llvm.lifetime.end.p0(i64 4, ptr nonnull %7) #8
  %58 = getelementptr inbounds nuw i8, ptr %2, i64 812
  %59 = sext i32 %4 to i64
  %60 = zext nneg i32 %5 to i64
  %61 = getelementptr inbounds [8 x [6 x i32]], ptr %58, i64 0, i64 %59, i64 %60
  store i32 %.0, ptr %61, align 4, !tbaa !69
  br label %62

62:                                               ; preds = %56, %57
  %63 = phi i32 [ 0, %57 ], [ %.032.i.ph, %56 ]
  ret i32 %63
}